; Function Attrs: mustprogress uwtable
define internal noundef zeroext i1 @_ZL13compose_indicPK31hb_ot_shape_normalize_context_tjjPj(ptr nocapture noundef readonly %0, i32 noundef %1, i32 noundef %2, ptr noundef %3) #0 {
  %5 = getelementptr inbounds i8, ptr %0, i64 24
  %6 = load ptr, ptr %5, align 8
  %7 = getelementptr inbounds i8, ptr %6, i64 40
  %8 = load ptr, ptr %7, align 8
  %9 = getelementptr inbounds i8, ptr %6, i64 104
  %10 = load ptr, ptr %9, align 8
  %11 = tail call noundef i32 %8(ptr noundef nonnull %6, i32 noundef %1, ptr noundef %10)
  %12 = icmp ult i32 %11, 32
  br i1 %12, label %13, label %.critedge

13:                                               ; preds = %4
  %14 = load ptr, ptr %5, align 8
  %15 = getelementptr inbounds i8, ptr %14, i64 40
  %16 = load ptr, ptr %15, align 8
  %17 = getelementptr inbounds i8, ptr %14, i64 104
  %18 = load ptr, ptr %17, align 8
  %19 = tail call noundef i32 %16(ptr noundef nonnull %14, i32 noundef %1, ptr noundef %18)
  %20 = shl nuw i32 1, %19
  %21 = and i32 %20, 7168
  %22 = icmp eq i32 %21, 0
  br i1 %22, label %.critedge, label %_ZN18hb_unicode_funcs_t7composeEjjPj.exit

.critedge:                                        ; preds = %4, %13
  %23 = icmp eq i32 %1, 2479
  %24 = icmp eq i32 %2, 2492
  %or.cond = and i1 %23, %24
  br i1 %or.cond, label %25, label %26

25:                                               ; preds = %.critedge
  store i32 2527, ptr %3, align 4
  br label %_ZN18hb_unicode_funcs_t7composeEjjPj.exit

26:                                               ; preds = %.critedge
  %27 = load ptr, ptr %5, align 8
  store i32 0, ptr %3, align 4
  %28 = icmp ne i32 %1, 0
  %29 = icmp ne i32 %2, 0
  %or.cond.i = and i1 %28, %29
  br i1 %or.cond.i, label %30, label %_ZN18hb_unicode_funcs_t7composeEjjPj.exit

30:                                               ; preds = %26
  %31 = getelementptr inbounds i8, ptr %27, i64 64
  %32 = load ptr, ptr %31, align 8
  %33 = getelementptr inbounds i8, ptr %27, i64 128
  %34 = load ptr, ptr %33, align 8
  %35 = tail call noundef i32 %32(ptr noundef nonnull %27, i32 noundef %1, i32 noundef %2, ptr noundef nonnull %3, ptr noundef %34)
  %36 = icmp ne i32 %35, 0
  br label %_ZN18hb_unicode_funcs_t7composeEjjPj.exit

_ZN18hb_unicode_funcs_t7composeEjjPj.exit:        ; preds = %30, %26, %13, %25
  %.0 = phi i1 [ true, %25 ], [ false, %13 ], [ %36, %30 ], [ false, %26 ]
  ret i1 %.0
}